(dp0
S'printVerboseLog'
p1
I01
sS'ExperimentStatistics'
p2
(dp3
S'KO1'
p4
(dp5
S'readsA'
p6
I44278414
sS'totalReads'
p7
I56195774
sS'alignedReads'
p8
I55582999
sS'collectedReads'
p9
I45442232
sS'coverageX'
p10
I2327636
sS'coverageA'
p11
I88556828
sS'normFactor'
p12
F1.299605220728999
sS'readsX'
p13
I1163818
ssS'WT1'
p14
(dp15
g6
I57544458
sg7
I75378681
sg8
I74497459
sg9
I60681226
sg10
I6273536
sg11
I115088916
sg12
F1.0
sg13
I3136768
ssS'KO1_DOX'
p16
(dp17
g6
I30553309
sg7
I38232146
sg8
I37812713
sg9
I31285709
sg10
I1464800
sg11
I61106618
sg12
F1.8834116461820878
sg13
I732400
ssS'WT1_DOX'
p18
(dp19
g6
I46618536
sg7
I61497498
sg8
I60813983
sg9
I48800224
sg10
I4363376
sg11
I93237072
sg12
F1.2343686210995557
sg13
I2181688
sss.