(dp0
S'printVerboseLog'
p1
I01
sS'ExperimentStatistics'
p2
(dp3
S'KO3'
p4
(dp5
S'readsA'
p6
I37214037
sS'totalReads'
p7
I51884505
sS'alignedReads'
p8
I51457323
sS'collectedReads'
p9
I38289828
sS'coverageX'
p10
I2151582
sS'coverageA'
p11
I74428074
sS'normFactor'
p12
F1.3941661045803764
sS'readsX'
p13
I1075791
ssS'WT3'
p14
(dp15
g6
I50902781
sg7
I75787767
sg8
I75118725
sg9
I53774465
sg10
I5743368
sg11
I101805562
sg12
F1.019247828522375
sg13
I2871684
ssS'KO3_DOX'
p16
(dp17
g6
I46826144
sg7
I65680595
sg8
I65131282
sg9
I48043014
sg10
I2433740
sg11
I93652288
sg12
F1.1079825193379151
sg13
I1216870
ssS'WT3_DOX'
p18
(dp19
g6
I51882549
sg7
I73674725
sg8
I73045386
sg9
I54370101
sg10
I4975104
sg11
I103765098
sg12
F1.0
sg13
I2487552
sss.