(dp0
S'printVerboseLog'
p1
I01
sS'ExperimentStatistics'
p2
(dp3
S'KO2_DOX'
p4
(dp5
S'readsA'
p6
I19264754
sS'totalReads'
p7
I24015136
sS'alignedReads'
p8
I23782491
sS'collectedReads'
p9
I19770274
sS'coverageX'
p10
I1011040
sS'coverageA'
p11
I38529508
sS'normFactor'
p12
F2.464925324247587
sS'readsX'
p13
I505520
ssS'WT2'
p14
(dp15
g6
I47486180
sg7
I66070011
sg8
I65286011
sg9
I50096606
sg10
I5220852
sg11
I94972360
sg12
F1.0
sg13
I2610426
ssS'KO2'
p16
(dp17
g6
I34124357
sg7
I45152993
sg8
I44742716
sg9
I35128495
sg10
I2008276
sg11
I68248714
sg12
F1.391562630762537
sg13
I1004138
ssS'WT2_DOX'
p18
(dp19
g6
I35023563
sg7
I48368545
sg8
I47842530
sg9
I36528914
sg10
I3010702
sg11
I70047126
sg12
F1.355835212996462
sg13
I1505351
sss.